; Function Attrs: mustprogress nofree norecurse nosync nounwind willreturn memory(read, inaccessiblemem: none) uwtable
define dso_local { i64, i64 } @_ZNK4llvm19TargetFrameLowering28getFrameIndexReferenceFromSPERKNS_15MachineFunctionEi(ptr noundef nonnull readonly align 8 captures(none) dereferenceable(21) %0, ptr noundef nonnull readonly align 8 captures(none) dereferenceable(1041) %1, i32 noundef %2) unnamed_addr #5 align 2 {
  %4 = getelementptr inbounds nuw i8, ptr %1, i64 48
  %5 = load ptr, ptr %4, align 8
  %6 = getelementptr inbounds nuw i8, ptr %5, i64 8
  %7 = getelementptr inbounds nuw i8, ptr %5, i64 32
  %8 = load i32, ptr %7, align 8
  %9 = add i32 %8, %2
  %10 = zext i32 %9 to i64
  %11 = load ptr, ptr %6, align 8
  %12 = getelementptr inbounds nuw %"struct.llvm::MachineFrameInfo::StackObject", ptr %11, i64 %10
  %13 = load i64, ptr %12, align 8
  %14 = getelementptr inbounds nuw i8, ptr %0, i64 16
  %15 = load i32, ptr %14, align 8
  %16 = sext i32 %15 to i64
  %17 = sub nsw i64 %13, %16
  %.fca.0.insert.i = insertvalue { i64, i64 } poison, i64 %17, 0
  %.fca.1.insert.i = insertvalue { i64, i64 } %.fca.0.insert.i, i64 0, 1
  ret { i64, i64 } %.fca.1.insert.i
}